target datalayout = "e-m:e-p270:32:32-p271:32:32-p272:64:64-i64:64-i128:128-f80:128-n8:16:32:64-S128"
target triple = "x86_64-pc-linux-gnu"

%"class.cv::Size_" = type { i32, i32 }

; Function Attrs: mustprogress nounwind uwtable
define internal void @_ZN2cv12cpu_baselineL9GEMMStoreIddEEvPKT_mPKT0_mPS2_mNS_5Size_IiEEddi(ptr noundef %0, i64 noundef %1, ptr noundef %2, i64 noundef %3, ptr noundef %4, i64 noundef %5, i64 %6, double noundef %7, double noundef %8, i32 noundef %9) #8 {
  %11 = alloca %"class.cv::Size_", align 4
  %12 = alloca ptr, align 8
  %13 = alloca i64, align 8
  %14 = alloca ptr, align 8
  %15 = alloca i64, align 8
  %16 = alloca ptr, align 8
  %17 = alloca i64, align 8
  %18 = alloca double, align 8
  %19 = alloca double, align 8
  %20 = alloca i32, align 4
  %21 = alloca ptr, align 8
  %22 = alloca i32, align 4
  %23 = alloca i64, align 8
  %24 = alloca i64, align 8
  %25 = alloca double, align 8
  store i64 %6, ptr %11, align 4
  store ptr %0, ptr %12, align 8, !tbaa !19
  store i64 %1, ptr %13, align 8, !tbaa !8
  store ptr %2, ptr %14, align 8, !tbaa !19
  store i64 %3, ptr %15, align 8, !tbaa !8
  store ptr %4, ptr %16, align 8, !tbaa !19
  store i64 %5, ptr %17, align 8, !tbaa !8
  store double %7, ptr %18, align 8, !tbaa !21
  store double %8, ptr %19, align 8, !tbaa !21
  store i32 %9, ptr %20, align 4, !tbaa !12
  call void @llvm.lifetime.start.p0(i64 8, ptr %21) #3
  %26 = load ptr, ptr %12, align 8, !tbaa !19
  store ptr %26, ptr %21, align 8, !tbaa !19
  call void @llvm.lifetime.start.p0(i64 4, ptr %22) #3
  call void @llvm.lifetime.start.p0(i64 8, ptr %23) #3
  call void @llvm.lifetime.start.p0(i64 8, ptr %24) #3
  %27 = load i64, ptr %13, align 8, !tbaa !8
  %28 = udiv i64 %27, 8
  store i64 %28, ptr %13, align 8, !tbaa !8
  %29 = load i64, ptr %15, align 8, !tbaa !8
  %30 = udiv i64 %29, 8
  store i64 %30, ptr %15, align 8, !tbaa !8
  %31 = load i64, ptr %17, align 8, !tbaa !8
  %32 = udiv i64 %31, 8
  store i64 %32, ptr %17, align 8, !tbaa !8
  %33 = load ptr, ptr %12, align 8, !tbaa !19
  %34 = icmp ne ptr %33, null
  br i1 %34, label %36, label %35

35:                                               ; preds = %10
  store i64 0, ptr %24, align 8, !tbaa !8
  store i64 0, ptr %23, align 8, !tbaa !8
  br label %45

36:                                               ; preds = %10
  %37 = load i32, ptr %20, align 4, !tbaa !12
  %38 = and i32 %37, 4
  %39 = icmp ne i32 %38, 0
  br i1 %39, label %42, label %40

40:                                               ; preds = %36
  %41 = load i64, ptr %13, align 8, !tbaa !8
  store i64 %41, ptr %23, align 8, !tbaa !8
  store i64 1, ptr %24, align 8, !tbaa !8
  br label %44

42:                                               ; preds = %36
  store i64 1, ptr %23, align 8, !tbaa !8
  %43 = load i64, ptr %13, align 8, !tbaa !8
  store i64 %43, ptr %24, align 8, !tbaa !8
  br label %44

44:                                               ; preds = %42, %40
  br label %45

45:                                               ; preds = %44, %35
  br label %46

46:                                               ; preds = %109, %45
  %47 = getelementptr inbounds nuw %"class.cv::Size_", ptr %11, i32 0, i32 1
  %48 = load i32, ptr %47, align 4, !tbaa !41
  %49 = add nsw i32 %48, -1
  store i32 %49, ptr %47, align 4, !tbaa !41
  %50 = icmp ne i32 %48, 0
  br i1 %50, label %51, label %119

51:                                               ; preds = %46
  %52 = load ptr, ptr %21, align 8, !tbaa !19
  %53 = icmp ne ptr %52, null
  br i1 %53, label %54, label %86

54:                                               ; preds = %51
  %55 = load ptr, ptr %21, align 8, !tbaa !19
  store ptr %55, ptr %12, align 8, !tbaa !19
  store i32 0, ptr %22, align 4, !tbaa !12
  br label %56

56:                                               ; preds = %79, %54
  %57 = load i32, ptr %22, align 4, !tbaa !12
  %58 = getelementptr inbounds nuw %"class.cv::Size_", ptr %11, i32 0, i32 0
  %59 = load i32, ptr %58, align 4, !tbaa !39
  %60 = icmp slt i32 %57, %59
  br i1 %60, label %61, label %85

61:                                               ; preds = %56
  call void @llvm.lifetime.start.p0(i64 8, ptr %25) #3
  %62 = load double, ptr %18, align 8, !tbaa !21
  %63 = load ptr, ptr %14, align 8, !tbaa !19
  %64 = load i32, ptr %22, align 4, !tbaa !12
  %65 = sext i32 %64 to i64
  %66 = getelementptr inbounds double, ptr %63, i64 %65
  %67 = load double, ptr %66, align 8, !tbaa !21
  %68 = fmul double %62, %67
  store double %68, ptr %25, align 8, !tbaa !21
  %69 = load double, ptr %25, align 8, !tbaa !21
  %70 = load ptr, ptr %12, align 8, !tbaa !19
  %71 = getelementptr inbounds double, ptr %70, i64 0
  %72 = load double, ptr %71, align 8, !tbaa !21
  %73 = load double, ptr %19, align 8, !tbaa !21
  %74 = call double @llvm.fmuladd.f64(double %72, double %73, double %69)
  %75 = load ptr, ptr %16, align 8, !tbaa !19
  %76 = load i32, ptr %22, align 4, !tbaa !12
  %77 = sext i32 %76 to i64
  %78 = getelementptr inbounds double, ptr %75, i64 %77
  store double %74, ptr %78, align 8, !tbaa !21
  call void @llvm.lifetime.end.p0(i64 8, ptr %25) #3
  br label %79

79:                                               ; preds = %61
  %80 = load i32, ptr %22, align 4, !tbaa !12
  %81 = add nsw i32 %80, 1
  store i32 %81, ptr %22, align 4, !tbaa !12
  %82 = load i64, ptr %24, align 8, !tbaa !8
  %83 = load ptr, ptr %12, align 8, !tbaa !19
  %84 = getelementptr inbounds nuw double, ptr %83, i64 %82
  store ptr %84, ptr %12, align 8, !tbaa !19
  br label %56, !llvm.loop !583

85:                                               ; preds = %56
  br label %108

86:                                               ; preds = %51
  store i32 0, ptr %22, align 4, !tbaa !12
  br label %87

87:                                               ; preds = %104, %86
  %88 = load i32, ptr %22, align 4, !tbaa !12
  %89 = getelementptr inbounds nuw %"class.cv::Size_", ptr %11, i32 0, i32 0
  %90 = load i32, ptr %89, align 4, !tbaa !39
  %91 = icmp slt i32 %88, %90
  br i1 %91, label %92, label %107

92:                                               ; preds = %87
  %93 = load double, ptr %18, align 8, !tbaa !21
  %94 = load ptr, ptr %14, align 8, !tbaa !19
  %95 = load i32, ptr %22, align 4, !tbaa !12
  %96 = sext i32 %95 to i64
  %97 = getelementptr inbounds double, ptr %94, i64 %96
  %98 = load double, ptr %97, align 8, !tbaa !21
  %99 = fmul double %93, %98
  %100 = load ptr, ptr %16, align 8, !tbaa !19
  %101 = load i32, ptr %22, align 4, !tbaa !12
  %102 = sext i32 %101 to i64
  %103 = getelementptr inbounds double, ptr %100, i64 %102
  store double %99, ptr %103, align 8, !tbaa !21
  br label %104

104:                                              ; preds = %92
  %105 = load i32, ptr %22, align 4, !tbaa !12
  %106 = add nsw i32 %105, 1
  store i32 %106, ptr %22, align 4, !tbaa !12
  br label %87, !llvm.loop !584

107:                                              ; preds = %87
  br label %108

108:                                              ; preds = %107, %85
  br label %109

109:                                              ; preds = %108
  %110 = load i64, ptr %23, align 8, !tbaa !8
  %111 = load ptr, ptr %21, align 8, !tbaa !19
  %112 = getelementptr inbounds nuw double, ptr %111, i64 %110
  store ptr %112, ptr %21, align 8, !tbaa !19
  %113 = load i64, ptr %15, align 8, !tbaa !8
  %114 = load ptr, ptr %14, align 8, !tbaa !19
  %115 = getelementptr inbounds nuw double, ptr %114, i64 %113
  store ptr %115, ptr %14, align 8, !tbaa !19
  %116 = load i64, ptr %17, align 8, !tbaa !8
  %117 = load ptr, ptr %16, align 8, !tbaa !19
  %118 = getelementptr inbounds nuw double, ptr %117, i64 %116
  store ptr %118, ptr %16, align 8, !tbaa !19
  br label %46, !llvm.loop !585

119:                                              ; preds = %46
  call void @llvm.lifetime.end.p0(i64 8, ptr %24) #3
  call void @llvm.lifetime.end.p0(i64 8, ptr %23) #3
  call void @llvm.lifetime.end.p0(i64 4, ptr %22) #3
  call void @llvm.lifetime.end.p0(i64 8, ptr %21) #3
  ret void
}

; Function Attrs: mustprogress uwtable
define internal void @_ZN2cv12cpu_baselineL13GEMMStore_64fEPKdmS2_mPdmNS_5Size_IiEEddi(ptr noundef %0, i64 noundef %1, ptr noundef %2, i64 noundef %3, ptr noundef %4, i64 noundef %5, i64 %6, double noundef %7, double noundef %8, i32 noundef %9) #4 {
  %11 = alloca %"class.cv::Size_", align 4
  %12 = alloca ptr, align 8
  %13 = alloca i64, align 8
  %14 = alloca ptr, align 8
  %15 = alloca i64, align 8
  %16 = alloca ptr, align 8
  %17 = alloca i64, align 8
  %18 = alloca double, align 8
  %19 = alloca double, align 8
  %20 = alloca i32, align 4
  %21 = alloca %"class.cv::Size_", align 4
  store i64 %6, ptr %11, align 4
  store ptr %0, ptr %12, align 8, !tbaa !19
  store i64 %1, ptr %13, align 8, !tbaa !8
  store ptr %2, ptr %14, align 8, !tbaa !19
  store i64 %3, ptr %15, align 8, !tbaa !8
  store ptr %4, ptr %16, align 8, !tbaa !19
  store i64 %5, ptr %17, align 8, !tbaa !8
  store double %7, ptr %18, align 8, !tbaa !21
  store double %8, ptr %19, align 8, !tbaa !21
  store i32 %9, ptr %20, align 4, !tbaa !12
  %22 = load ptr, ptr %12, align 8, !tbaa !19
  %23 = load i64, ptr %13, align 8, !tbaa !8
  %24 = load ptr, ptr %14, align 8, !tbaa !19
  %25 = load i64, ptr %15, align 8, !tbaa !8
  %26 = load ptr, ptr %16, align 8, !tbaa !19
  %27 = load i64, ptr %17, align 8, !tbaa !8
  call void @llvm.memcpy.p0.p0.i64(ptr align 4 %21, ptr align 4 %11, i64 8, i1 false), !tbaa.struct !292
  %28 = load double, ptr %18, align 8, !tbaa !21
  %29 = load double, ptr %19, align 8, !tbaa !21
  %30 = load i32, ptr %20, align 4, !tbaa !12
  %31 = load i64, ptr %21, align 4
  call void @_ZN2cv12cpu_baselineL9GEMMStoreIddEEvPKT_mPKT0_mPS2_mNS_5Size_IiEEddi(ptr noundef %22, i64 noundef %23, ptr noundef %24, i64 noundef %25, ptr noundef %26, i64 noundef %27, i64 %31, double noundef %28, double noundef %29, i32 noundef %30)
  ret void
}