; Function Attrs: mustprogress nofree norecurse nosync nounwind memory(argmem: readwrite) uwtable
define internal void @_ZN2cv12cpu_baselineL13GEMMStore_64fEPKdmS2_mPdmNS_5Size_IiEEddi(ptr noundef readonly %0, i64 noundef %1, ptr noundef readonly captures(none) %2, i64 noundef %3, ptr noundef writeonly captures(none) %4, i64 noundef %5, i64 %6, double noundef %7, double noundef %8, i32 noundef %9) unnamed_addr #9 {
  %.fr.i = freeze i64 %6
  %11 = lshr i64 %1, 3
  %12 = lshr i64 %3, 3
  %13 = lshr i64 %5, 3
  %.not.i = icmp eq ptr %0, null
  %14 = and i32 %9, 4
  %.not41.i = icmp eq i32 %14, 0
  %..i = select i1 %.not41.i, i64 %11, i64 1
  %.44.i = select i1 %.not41.i, i64 1, i64 %11
  %.035.i = select i1 %.not.i, i64 0, i64 %..i
  %.0.i = select i1 %.not.i, i64 0, i64 %.44.i
  %.not4251.i = icmp ugt i64 %.fr.i, 4294967295
  %.sroa.0.0.extract.trunc.i = trunc i64 %.fr.i to i32
  %15 = icmp sgt i32 %.sroa.0.0.extract.trunc.i, 0
  %or.cond.i = and i1 %.not4251.i, %15
  br i1 %or.cond.i, label %.lr.ph58.split.us.split.us.preheader.i, label %_ZN2cv12cpu_baselineL9GEMMStoreIddEEvPKT_mPKT0_mPS2_mNS_5Size_IiEEddi.exit

.lr.ph58.split.us.split.us.preheader.i:           ; preds = %10
  %.sroa.3.0.extract.shift.i = lshr i64 %.fr.i, 32
  %.sroa.3.0.extract.trunc.i = trunc nuw i64 %.sroa.3.0.extract.shift.i to i32
  %wide.trip.count85.i = and i64 %.fr.i, 2147483647
  br label %.lr.ph58.split.us.split.us.i

.lr.ph58.split.us.split.us.i:                     ; preds = %..loopexit46_crit_edge.us.us.i, %.lr.ph58.split.us.split.us.preheader.i
  %.in.i = phi i32 [ %16, %..loopexit46_crit_edge.us.us.i ], [ %.sroa.3.0.extract.trunc.i, %.lr.ph58.split.us.split.us.preheader.i ]
  %.03756.us.us.i = phi ptr [ %24, %..loopexit46_crit_edge.us.us.i ], [ %0, %.lr.ph58.split.us.split.us.preheader.i ]
  %.03954.us.us.i = phi ptr [ %25, %..loopexit46_crit_edge.us.us.i ], [ %2, %.lr.ph58.split.us.split.us.preheader.i ]
  %.04052.us.us.i = phi ptr [ %26, %..loopexit46_crit_edge.us.us.i ], [ %4, %.lr.ph58.split.us.split.us.preheader.i ]
  %16 = add nsw i32 %.in.i, -1
  %.not43.us.us.i = icmp eq ptr %.03756.us.us.i, null
  br i1 %.not43.us.us.i, label %.preheader.us.us.i, label %.preheader45.us.us.i

.preheader45.us.us.i:                             ; preds = %.lr.ph58.split.us.split.us.i, %.preheader45.us.us.i
  %indvars.iv82.i = phi i64 [ %indvars.iv.next83.i, %.preheader45.us.us.i ], [ 0, %.lr.ph58.split.us.split.us.i ]
  %.03847.us.us.i = phi ptr [ %23, %.preheader45.us.us.i ], [ %.03756.us.us.i, %.lr.ph58.split.us.split.us.i ]
  %17 = getelementptr inbounds nuw double, ptr %.03954.us.us.i, i64 %indvars.iv82.i
  %18 = load double, ptr %17, align 8, !tbaa !45
  %19 = fmul double %7, %18
  %20 = load double, ptr %.03847.us.us.i, align 8, !tbaa !45
  %21 = tail call double @llvm.fmuladd.f64(double %20, double %8, double %19)
  %22 = getelementptr inbounds nuw double, ptr %.04052.us.us.i, i64 %indvars.iv82.i
  store double %21, ptr %22, align 8, !tbaa !45
  %indvars.iv.next83.i = add nuw nsw i64 %indvars.iv82.i, 1
  %23 = getelementptr inbounds nuw double, ptr %.03847.us.us.i, i64 %.0.i
  %exitcond86.not.i = icmp eq i64 %indvars.iv.next83.i, %wide.trip.count85.i
  br i1 %exitcond86.not.i, label %..loopexit46_crit_edge.us.us.i, label %.preheader45.us.us.i, !llvm.loop !619

..loopexit46_crit_edge.us.us.i:                   ; preds = %.preheader45.us.us.i, %.preheader.us.us.i
  %24 = getelementptr inbounds nuw double, ptr %.03756.us.us.i, i64 %.035.i
  %25 = getelementptr inbounds nuw double, ptr %.03954.us.us.i, i64 %12
  %26 = getelementptr inbounds nuw double, ptr %.04052.us.us.i, i64 %13
  %.not42.us.us.i = icmp eq i32 %16, 0
  br i1 %.not42.us.us.i, label %_ZN2cv12cpu_baselineL9GEMMStoreIddEEvPKT_mPKT0_mPS2_mNS_5Size_IiEEddi.exit, label %.lr.ph58.split.us.split.us.i, !llvm.loop !620

.preheader.us.us.i:                               ; preds = %.lr.ph58.split.us.split.us.i, %.preheader.us.us.i
  %indvars.iv87.i = phi i64 [ %indvars.iv.next88.i, %.preheader.us.us.i ], [ 0, %.lr.ph58.split.us.split.us.i ]
  %27 = getelementptr inbounds nuw double, ptr %.03954.us.us.i, i64 %indvars.iv87.i
  %28 = load double, ptr %27, align 8, !tbaa !45
  %29 = fmul double %7, %28
  %30 = getelementptr inbounds nuw double, ptr %.04052.us.us.i, i64 %indvars.iv87.i
  store double %29, ptr %30, align 8, !tbaa !45
  %indvars.iv.next88.i = add nuw nsw i64 %indvars.iv87.i, 1
  %exitcond91.not.i = icmp eq i64 %indvars.iv.next88.i, %wide.trip.count85.i
  br i1 %exitcond91.not.i, label %..loopexit46_crit_edge.us.us.i, label %.preheader.us.us.i, !llvm.loop !621

_ZN2cv12cpu_baselineL9GEMMStoreIddEEvPKT_mPKT0_mPS2_mNS_5Size_IiEEddi.exit: ; preds = %..loopexit46_crit_edge.us.us.i, %10
  ret void
}